; Function Attrs: mustprogress uwtable
define noundef i32 @_ZNK10open_spiel9blackjack14BlackjackState8DealerIdEv(ptr nocapture noundef nonnull readonly align 8 dereferenceable(200) %0) local_unnamed_addr #3 align 2 {
  %2 = getelementptr inbounds nuw i8, ptr %0, i64 8
  %3 = load ptr, ptr %2, align 8
  %4 = load ptr, ptr %3, align 8
  %5 = getelementptr inbounds i8, ptr %4, i64 56
  %6 = load ptr, ptr %5, align 8
  %7 = tail call noundef i32 %6(ptr noundef nonnull align 8 dereferenceable(280) %3)
  ret i32 %7
}